; Function Attrs: mustprogress nounwind uwtable
define internal void @_ZN32pxrInternal_v0_24__pxrReserved__8TfNotice10_DelivererINS_9TfWeakPtrIZL29_TestSdfLayerTransferContentsvE15_ChangeListenerEENS_12TfAnyWeakPtrEMS3_FvRKNS_9SdfNotice15LayersDidChangeEES7_ED0Ev(ptr noundef nonnull align 8 dereferenceable(104) %0) unnamed_addr #4 align 2 personality ptr @__gxx_personality_v0 {
  store ptr getelementptr inbounds inrange(-16, 56) (i8, ptr @_ZTVN32pxrInternal_v0_24__pxrReserved__8TfNotice10_DelivererINS_9TfWeakPtrIZL29_TestSdfLayerTransferContentsvE15_ChangeListenerEENS_12TfAnyWeakPtrEMS3_FvRKNS_9SdfNotice15LayersDidChangeEES7_EE, i64 16), ptr %0, align 8
  %2 = getelementptr inbounds nuw i8, ptr %0, i64 56
  %3 = load ptr, ptr %2, align 8
  %4 = load ptr, ptr %3, align 8
  tail call void %4(ptr noundef nonnull align 8 dereferenceable(8) %2) #23
  %5 = getelementptr inbounds i8, ptr %0, i64 48
  %.val.i = load ptr, ptr %5, align 8
  %.not.i.i.i.i.i = icmp eq ptr %.val.i, null
  br i1 %.not.i.i.i.i.i, label %_ZN32pxrInternal_v0_24__pxrReserved__8TfNotice10_DelivererINS_9TfWeakPtrIZL29_TestSdfLayerTransferContentsvE15_ChangeListenerEENS_12TfAnyWeakPtrEMS3_FvRKNS_9SdfNotice15LayersDidChangeEES7_ED2Ev.exit, label %_ZN32pxrInternal_v0_24__pxrReserved__17Tf_RefPtr_Counter9RemoveRefEPKNS_9TfRefBaseE.exit.i.i.i.i

_ZN32pxrInternal_v0_24__pxrReserved__17Tf_RefPtr_Counter9RemoveRefEPKNS_9TfRefBaseE.exit.i.i.i.i: ; preds = %1
  %6 = getelementptr inbounds nuw i8, ptr %.val.i, i64 8
  %7 = atomicrmw sub ptr %6, i32 1 release, align 4
  %8 = icmp eq i32 %7, 1
  br i1 %8, label %9, label %_ZN32pxrInternal_v0_24__pxrReserved__8TfNotice10_DelivererINS_9TfWeakPtrIZL29_TestSdfLayerTransferContentsvE15_ChangeListenerEENS_12TfAnyWeakPtrEMS3_FvRKNS_9SdfNotice15LayersDidChangeEES7_ED2Ev.exit

9:                                                ; preds = %_ZN32pxrInternal_v0_24__pxrReserved__17Tf_RefPtr_Counter9RemoveRefEPKNS_9TfRefBaseE.exit.i.i.i.i
  %10 = load ptr, ptr %.val.i, align 8
  %11 = getelementptr inbounds i8, ptr %10, i64 8
  %12 = load ptr, ptr %11, align 8
  tail call void %12(ptr noundef nonnull align 8 dereferenceable(12) %.val.i) #23
  br label %_ZN32pxrInternal_v0_24__pxrReserved__8TfNotice10_DelivererINS_9TfWeakPtrIZL29_TestSdfLayerTransferContentsvE15_ChangeListenerEENS_12TfAnyWeakPtrEMS3_FvRKNS_9SdfNotice15LayersDidChangeEES7_ED2Ev.exit

_ZN32pxrInternal_v0_24__pxrReserved__8TfNotice10_DelivererINS_9TfWeakPtrIZL29_TestSdfLayerTransferContentsvE15_ChangeListenerEENS_12TfAnyWeakPtrEMS3_FvRKNS_9SdfNotice15LayersDidChangeEES7_ED2Ev.exit: ; preds = %1, %_ZN32pxrInternal_v0_24__pxrReserved__17Tf_RefPtr_Counter9RemoveRefEPKNS_9TfRefBaseE.exit.i.i.i.i, %9
  tail call void @_ZN32pxrInternal_v0_24__pxrReserved__8TfNotice14_DelivererBaseD2Ev(ptr noundef nonnull align 8 dereferenceable(34) %0) #23
  tail call void @_ZdlPvm(ptr noundef nonnull %0, i64 noundef 104) #26
  ret void
}